target datalayout = "e-m:e-p270:32:32-p271:32:32-p272:64:64-i64:64-i128:128-f80:128-n8:16:32:64-S128"
target triple = "x86_64-pc-linux-gnu"

%struct.rb_vm_struct = type { i64, %struct.anon.5, ptr, i64, %struct.ccan_list_head, i32, i8, i64, ptr, [5 x i64], i64, i64, i64, i64, i64, i64, i64, i64, i64, ptr, ptr, ptr, %struct.anon.9, ptr, i32, %struct.ccan_list_head, %union.pthread_mutex_t, i64, i64, i64, i64, i32, %struct.anon.10, ptr, ptr, ptr, ptr, ptr, ptr, ptr, ptr, i64, [1023 x ptr], %struct.anon.11 }
%struct.anon.5 = type { %struct.ccan_list_head, i32, i32, ptr, ptr, %struct.anon.6, %struct.anon.8 }
%struct.anon.6 = type { %union.pthread_mutex_t, ptr, i32, %union.pthread_cond_t, i8 }
%union.pthread_cond_t = type { %struct.__pthread_cond_s }
%struct.__pthread_cond_s = type { %union.__atomic_wide_counter, %union.__atomic_wide_counter, [2 x i32], [2 x i32], i32, i32, [2 x i32] }
%union.__atomic_wide_counter = type { i64 }
%struct.anon.8 = type { %union.pthread_mutex_t, ptr, i8, %union.pthread_cond_t, i32, i32, i32, i32, %struct.ccan_list_head, i32, %struct.ccan_list_head, %struct.ccan_list_head, %struct.ccan_list_head, i8, %union.pthread_cond_t, %union.pthread_cond_t, i8, i32, i32 }
%struct.anon.9 = type { [65 x i64] }
%struct.ccan_list_head = type { %struct.ccan_list_node }
%struct.ccan_list_node = type { ptr, ptr }
%union.pthread_mutex_t = type { %struct.__pthread_mutex_s }
%struct.__pthread_mutex_s = type { i32, i32, i32, i32, i32, i16, i16, %struct.__pthread_internal_list }
%struct.__pthread_internal_list = type { ptr, ptr }
%struct.anon.10 = type { ptr, ptr }
%struct.anon.11 = type { i64, i64, i64, i64 }
%struct.rb_vm_tag = type { i64, i64, [5 x ptr], ptr, i32, i32 }
%struct.rb_execution_context_struct = type { ptr, i64, ptr, ptr, i32, i32, ptr, ptr, ptr, i64, i64, i64, ptr, i64, ptr, i64, i64, i8, i8, i64, %struct.anon.0 }
%struct.anon.0 = type { ptr, ptr, i64, [1 x %struct.__jmp_buf_tag] }
%struct.__jmp_buf_tag = type { [8 x i64], i32, %struct.__sigset_t }
%struct.__sigset_t = type { [16 x i64] }
%struct.rb_thread_struct = type { %struct.ccan_list_node, i64, ptr, ptr, ptr, ptr, %struct.rb_thread_sched_item, i8, i32, i64, ptr, i64, i64, i8, i8, i32, ptr, i64, i64, i64, i64, %union.pthread_mutex_t, %struct.rb_unblock_callback, i64, ptr, %struct.ccan_list_head, ptr, %union.anon, i32, i64, ptr, i64, i32, i64, ptr, %struct.rb_ext_config }
%struct.rb_thread_sched_item = type { %struct.anon.1, %struct.rb_thread_sched_waiting, i8, i8, ptr, ptr }
%struct.anon.1 = type { %struct.ccan_list_node, %struct.ccan_list_node, %struct.ccan_list_node, %struct.ccan_list_node, %struct.ccan_list_node }
%struct.rb_thread_sched_waiting = type { i32, %struct.anon.2, %struct.ccan_list_node }
%struct.anon.2 = type { i64, i32, i32 }
%struct.rb_unblock_callback = type { ptr, ptr }
%union.anon = type { %struct.anon.3 }
%struct.anon.3 = type { i64, i64, i32 }
%struct.rb_ext_config = type { i8 }

@ruby_current_ec = external thread_local global ptr, align 8

; Function Attrs: inlinehint nounwind sspstrong uwtable
define internal ptr @rb_ec_thread_ptr(ptr noundef %0) #1 {
  %2 = alloca ptr, align 8
  store ptr %0, ptr %2, align 8, !tbaa !53
  %3 = load ptr, ptr %2, align 8, !tbaa !53
  %4 = getelementptr inbounds nuw %struct.rb_execution_context_struct, ptr %3, i32 0, i32 7
  %5 = load ptr, ptr %4, align 8, !tbaa !200
  ret ptr %5
}

; Function Attrs: inlinehint nounwind sspstrong uwtable
define internal ptr @rb_ec_ractor_ptr(ptr noundef %0) #1 {
  %2 = alloca ptr, align 8
  %3 = alloca ptr, align 8
  %4 = alloca ptr, align 8
  %5 = alloca i32, align 4
  store ptr %0, ptr %3, align 8, !tbaa !53
  call void @llvm.lifetime.start.p0(i64 8, ptr %4) #8
  %6 = load ptr, ptr %3, align 8, !tbaa !53
  %7 = call ptr @rb_ec_thread_ptr(ptr noundef %6)
  store ptr %7, ptr %4, align 8, !tbaa !94
  %8 = load ptr, ptr %4, align 8, !tbaa !94
  %9 = icmp ne ptr %8, null
  br i1 %9, label %10, label %14

10:                                               ; preds = %1
  %11 = load ptr, ptr %4, align 8, !tbaa !94
  %12 = getelementptr inbounds nuw %struct.rb_thread_struct, ptr %11, i32 0, i32 2
  %13 = load ptr, ptr %12, align 8, !tbaa !222
  store ptr %13, ptr %2, align 8
  store i32 1, ptr %5, align 4
  br label %15

14:                                               ; preds = %1
  store ptr null, ptr %2, align 8
  store i32 1, ptr %5, align 4
  br label %15

15:                                               ; preds = %14, %10
  call void @llvm.lifetime.end.p0(i64 8, ptr %4) #8
  %16 = load ptr, ptr %2, align 8
  ret ptr %16
}

; Function Attrs: inlinehint nounwind sspstrong uwtable
define internal ptr @rb_ec_vm_ptr(ptr noundef %0) #1 {
  %2 = alloca ptr, align 8
  %3 = alloca ptr, align 8
  %4 = alloca ptr, align 8
  %5 = alloca i32, align 4
  store ptr %0, ptr %3, align 8, !tbaa !53
  call void @llvm.lifetime.start.p0(i64 8, ptr %4) #8
  %6 = load ptr, ptr %3, align 8, !tbaa !53
  %7 = call ptr @rb_ec_thread_ptr(ptr noundef %6)
  store ptr %7, ptr %4, align 8, !tbaa !94
  %8 = load ptr, ptr %4, align 8, !tbaa !94
  %9 = icmp ne ptr %8, null
  br i1 %9, label %10, label %14

10:                                               ; preds = %1
  %11 = load ptr, ptr %4, align 8, !tbaa !94
  %12 = getelementptr inbounds nuw %struct.rb_thread_struct, ptr %11, i32 0, i32 3
  %13 = load ptr, ptr %12, align 8, !tbaa !103
  store ptr %13, ptr %2, align 8
  store i32 1, ptr %5, align 4
  br label %15

14:                                               ; preds = %1
  store ptr null, ptr %2, align 8
  store i32 1, ptr %5, align 4
  br label %15

15:                                               ; preds = %14, %10
  call void @llvm.lifetime.end.p0(i64 8, ptr %4) #8
  %16 = load ptr, ptr %2, align 8
  ret ptr %16
}

; Function Attrs: inlinehint nounwind sspstrong uwtable
define internal void @rb_vm_tag_jmpbuf_deinit(ptr noundef %0) #1 {
  %2 = alloca ptr, align 8
  store ptr %0, ptr %2, align 8, !tbaa !72
  ret void
}

; Function Attrs: nounwind sspstrong uwtable
define dso_local void @rb_load(i64 noundef %0, i32 noundef %1) #0 {
  %3 = alloca i64, align 8
  %4 = alloca i32, align 4
  %5 = alloca i64, align 8
  %6 = alloca ptr, align 8
  %7 = alloca ptr, align 8
  store i64 %0, ptr %3, align 8, !tbaa !12
  store i32 %1, ptr %4, align 4, !tbaa !39
  call void @llvm.lifetime.start.p0(i64 8, ptr %5) #8
  %8 = load i64, ptr %3, align 8, !tbaa !12
  %9 = call i64 @rb_get_path(i64 noundef %8)
  call void @llvm.lifetime.start.p0(i64 8, ptr %6) #8
  store ptr %3, ptr %6, align 8, !tbaa !48
  call void asm sideeffect "", "*m,~{dirflag},~{fpsr},~{flags}"(ptr elementtype(ptr) %6) #8, !srcloc !52
  %10 = load ptr, ptr %6, align 8, !tbaa !48
  store ptr %10, ptr %7, align 8, !tbaa !48
  call void @llvm.lifetime.end.p0(i64 8, ptr %6) #8
  %11 = load ptr, ptr %7, align 8, !tbaa !48
  store volatile i64 %9, ptr %11, align 8, !tbaa !12
  %12 = call i64 @rb_find_file(i64 noundef %9)
  store i64 %12, ptr %5, align 8, !tbaa !12
  %13 = load i64, ptr %5, align 8, !tbaa !12
  %14 = icmp ne i64 %13, 0
  br i1 %14, label %17, label %15

15:                                               ; preds = %2
  %16 = load i64, ptr %3, align 8, !tbaa !12
  call void @load_failed(i64 noundef %16) #31
  unreachable

17:                                               ; preds = %2
  %18 = load i64, ptr %5, align 8, !tbaa !12
  %19 = load i32, ptr %4, align 4, !tbaa !39
  %20 = icmp ne i32 %19, 0
  %21 = select i1 %20, i64 20, i64 0
  call void @rb_load_internal(i64 noundef %18, i64 noundef %21)
  call void @llvm.lifetime.end.p0(i64 8, ptr %5) #8
  ret void
}

; Function Attrs: inlinehint nounwind sspstrong uwtable
define internal void @rb_vm_tag_jmpbuf_init(ptr noundef %0) #1 {
  %2 = alloca ptr, align 8
  store ptr %0, ptr %2, align 8, !tbaa !72
  ret void
}

; Function Attrs: inlinehint nounwind sspstrong uwtable
define internal i32 @rb_ec_vm_lock_rec(ptr noundef %0) #1 {
  %2 = alloca i32, align 4
  %3 = alloca ptr, align 8
  %4 = alloca ptr, align 8
  %5 = alloca i32, align 4
  store ptr %0, ptr %3, align 8, !tbaa !53
  call void @llvm.lifetime.start.p0(i64 8, ptr %4) #8
  %6 = load ptr, ptr %3, align 8, !tbaa !53
  %7 = call ptr @rb_ec_vm_ptr(ptr noundef %6)
  store ptr %7, ptr %4, align 8, !tbaa !7
  %8 = load ptr, ptr %4, align 8, !tbaa !7
  %9 = getelementptr inbounds nuw %struct.rb_vm_struct, ptr %8, i32 0, i32 1
  %10 = getelementptr inbounds nuw %struct.anon.5, ptr %9, i32 0, i32 5
  %11 = getelementptr inbounds nuw %struct.anon.6, ptr %10, i32 0, i32 1
  %12 = load ptr, ptr %11, align 8, !tbaa !70
  %13 = load ptr, ptr %3, align 8, !tbaa !53
  %14 = call ptr @rb_ec_ractor_ptr(ptr noundef %13)
  %15 = icmp ne ptr %12, %14
  br i1 %15, label %16, label %17

16:                                               ; preds = %1
  store i32 0, ptr %2, align 4
  store i32 1, ptr %5, align 4
  br label %23

17:                                               ; preds = %1
  %18 = load ptr, ptr %4, align 8, !tbaa !7
  %19 = getelementptr inbounds nuw %struct.rb_vm_struct, ptr %18, i32 0, i32 1
  %20 = getelementptr inbounds nuw %struct.anon.5, ptr %19, i32 0, i32 5
  %21 = getelementptr inbounds nuw %struct.anon.6, ptr %20, i32 0, i32 2
  %22 = load i32, ptr %21, align 8, !tbaa !71
  store i32 %22, ptr %2, align 4
  store i32 1, ptr %5, align 4
  br label %23

23:                                               ; preds = %17, %16
  call void @llvm.lifetime.end.p0(i64 8, ptr %4) #8
  %24 = load i32, ptr %2, align 4
  ret i32 %24
}

; Function Attrs: inlinehint nounwind sspstrong uwtable
define internal ptr @rb_current_execution_context(i1 noundef zeroext %0) #1 {
  %2 = alloca i8, align 1
  %3 = alloca ptr, align 8
  %4 = zext i1 %0 to i8
  store i8 %4, ptr %2, align 1, !tbaa !69
  call void @llvm.lifetime.start.p0(i64 8, ptr %3) #8
  %5 = call align 8 ptr @llvm.threadlocal.address.p0(ptr align 8 @ruby_current_ec)
  %6 = load ptr, ptr %5, align 8, !tbaa !53
  store ptr %6, ptr %3, align 8, !tbaa !53
  %7 = load ptr, ptr %3, align 8, !tbaa !53
  call void @llvm.lifetime.end.p0(i64 8, ptr %3) #8
  ret ptr %7
}

; Function Attrs: nounwind sspstrong uwtable
define dso_local void @rb_load_protect(i64 noundef %0, i32 noundef %1, ptr noundef %2) #0 {
  %4 = alloca i64, align 8
  %5 = alloca i32, align 4
  %6 = alloca ptr, align 8
  %7 = alloca i32, align 4
  %8 = alloca ptr, align 8
  %9 = alloca %struct.rb_vm_tag, align 8
  store i64 %0, ptr %4, align 8, !tbaa !12
  store i32 %1, ptr %5, align 4, !tbaa !39
  store ptr %2, ptr %6, align 8, !tbaa !55
  call void @llvm.lifetime.start.p0(i64 4, ptr %7) #8
  br label %10

10:                                               ; preds = %3
  call void @llvm.lifetime.start.p0(i64 8, ptr %8) #8
  %11 = call ptr @rb_current_execution_context(i1 noundef zeroext true)
  store ptr %11, ptr %8, align 8, !tbaa !53
  call void @llvm.lifetime.start.p0(i64 72, ptr %9) #8
  %12 = getelementptr inbounds nuw %struct.rb_vm_tag, ptr %9, i32 0, i32 4
  store i32 0, ptr %12, align 8, !tbaa !57
  %13 = getelementptr inbounds nuw %struct.rb_vm_tag, ptr %9, i32 0, i32 0
  store i64 36, ptr %13, align 8, !tbaa !60
  %14 = load ptr, ptr %8, align 8, !tbaa !53
  %15 = getelementptr inbounds nuw %struct.rb_execution_context_struct, ptr %14, i32 0, i32 3
  %16 = load ptr, ptr %15, align 8, !tbaa !61
  %17 = getelementptr inbounds nuw %struct.rb_vm_tag, ptr %9, i32 0, i32 3
  store ptr %16, ptr %17, align 8, !tbaa !67
  %18 = load ptr, ptr %8, align 8, !tbaa !53
  %19 = call i32 @rb_ec_vm_lock_rec(ptr noundef %18)
  %20 = getelementptr inbounds nuw %struct.rb_vm_tag, ptr %9, i32 0, i32 5
  store i32 %19, ptr %20, align 4, !tbaa !68
  %21 = getelementptr inbounds nuw %struct.rb_vm_tag, ptr %9, i32 0, i32 2
  call void @rb_vm_tag_jmpbuf_init(ptr noundef %21)
  %22 = getelementptr inbounds nuw %struct.rb_vm_tag, ptr %9, i32 0, i32 2
  %23 = getelementptr inbounds [5 x ptr], ptr %22, i64 0, i64 0
  %24 = call ptr @llvm.frameaddress.p0(i32 0)
  store ptr %24, ptr %23, align 8
  %25 = call ptr @llvm.stacksave.p0()
  %26 = getelementptr inbounds ptr, ptr %23, i64 2
  store ptr %25, ptr %26, align 8
  %27 = call i32 @llvm.eh.sjlj.setjmp(ptr %23)
  %28 = icmp ne i32 %27, 0
  %29 = xor i1 %28, true
  %30 = xor i1 %29, true
  %31 = zext i1 %30 to i32
  %32 = sext i32 %31 to i64
  %33 = call i64 @llvm.expect.i64(i64 %32, i64 0)
  %34 = icmp ne i64 %33, 0
  br i1 %34, label %35, label %38

35:                                               ; preds = %10
  %36 = load volatile ptr, ptr %8, align 8, !tbaa !53
  %37 = call i32 @rb_ec_tag_state(ptr noundef %36)
  br label %41

38:                                               ; preds = %10
  %39 = load ptr, ptr %8, align 8, !tbaa !53
  %40 = getelementptr inbounds nuw %struct.rb_execution_context_struct, ptr %39, i32 0, i32 3
  store ptr %9, ptr %40, align 8, !tbaa !61
  br label %41

41:                                               ; preds = %38, %35
  %42 = phi i32 [ %37, %35 ], [ 0, %38 ]
  store i32 %42, ptr %7, align 4, !tbaa !39
  %43 = icmp eq i32 %42, 0
  br i1 %43, label %44, label %47

44:                                               ; preds = %41
  %45 = load i64, ptr %4, align 8, !tbaa !12
  %46 = load i32, ptr %5, align 4, !tbaa !39
  call void @rb_load(i64 noundef %45, i32 noundef %46)
  br label %47

47:                                               ; preds = %44, %41
  %48 = getelementptr inbounds nuw %struct.rb_vm_tag, ptr %9, i32 0, i32 3
  %49 = load ptr, ptr %48, align 8, !tbaa !67
  %50 = load ptr, ptr %8, align 8, !tbaa !53
  %51 = getelementptr inbounds nuw %struct.rb_execution_context_struct, ptr %50, i32 0, i32 3
  store ptr %49, ptr %51, align 8, !tbaa !61
  %52 = getelementptr inbounds nuw %struct.rb_vm_tag, ptr %9, i32 0, i32 2
  call void @rb_vm_tag_jmpbuf_deinit(ptr noundef %52)
  call void @llvm.lifetime.end.p0(i64 72, ptr %9) #8
  call void @llvm.lifetime.end.p0(i64 8, ptr %8) #8
  br label %53

53:                                               ; preds = %47
  br label %54

54:                                               ; preds = %53
  %55 = load i32, ptr %7, align 4, !tbaa !39
  %56 = icmp ne i32 %55, 0
  br i1 %56, label %57, label %60

57:                                               ; preds = %54
  %58 = load i32, ptr %7, align 4, !tbaa !39
  %59 = load ptr, ptr %6, align 8, !tbaa !55
  store i32 %58, ptr %59, align 4, !tbaa !39
  br label %60

60:                                               ; preds = %57, %54
  call void @llvm.lifetime.end.p0(i64 4, ptr %7) #8
  ret void
}