; Function Attrs: nounwind sspstrong uwtable
define dso_local void @rb_load_protect(i64 noundef %0, i32 noundef %1, ptr noundef writeonly captures(none) %2) local_unnamed_addr #0 {
  %4 = alloca i64, align 8
  %5 = alloca ptr, align 8
  %6 = alloca ptr, align 8
  %7 = alloca %struct.rb_vm_tag, align 8
  call void @llvm.lifetime.start.p0(i64 8, ptr nonnull %6)
  %8 = tail call align 8 ptr @llvm.threadlocal.address.p0(ptr align 8 @ruby_current_ec)
  %9 = load ptr, ptr %8, align 8, !tbaa !55
  store ptr %9, ptr %6, align 8, !tbaa !55
  call void @llvm.lifetime.start.p0(i64 72, ptr nonnull %7) #7
  %10 = getelementptr inbounds nuw i8, ptr %7, i64 64
  store i32 0, ptr %10, align 8, !tbaa !79
  store i64 36, ptr %7, align 8, !tbaa !81
  %11 = getelementptr inbounds nuw i8, ptr %9, i64 24
  %12 = load ptr, ptr %11, align 8, !tbaa !82
  %13 = getelementptr inbounds nuw i8, ptr %7, i64 56
  store ptr %12, ptr %13, align 8, !tbaa !83
  %14 = getelementptr i8, ptr %9, i64 48
  %.0.1.val = load ptr, ptr %14, align 8, !tbaa !57
  %.not.i.i = icmp eq ptr %.0.1.val, null
  br i1 %.not.i.i, label %rb_ec_ractor_ptr.exit.i, label %15

15:                                               ; preds = %3
  %16 = getelementptr inbounds nuw i8, ptr %.0.1.val, i64 32
  %17 = load ptr, ptr %16, align 8, !tbaa !84
  %18 = getelementptr inbounds nuw i8, ptr %17, i64 88
  %19 = getelementptr inbounds nuw i8, ptr %.0.1.val, i64 24
  %20 = load ptr, ptr %19, align 8, !tbaa !85
  br label %rb_ec_ractor_ptr.exit.i

rb_ec_ractor_ptr.exit.i:                          ; preds = %15, %3
  %.in.i = phi ptr [ %18, %15 ], [ inttoptr (i64 88 to ptr), %3 ]
  %.0.i2.i = phi ptr [ %17, %15 ], [ null, %3 ]
  %.0.i6.i = phi ptr [ %20, %15 ], [ null, %3 ]
  %21 = load ptr, ptr %.in.i, align 8, !tbaa !86
  %.not.i = icmp eq ptr %21, %.0.i6.i
  br i1 %.not.i, label %22, label %rb_ec_vm_lock_rec.exit

22:                                               ; preds = %rb_ec_ractor_ptr.exit.i
  %23 = getelementptr inbounds nuw i8, ptr %.0.i2.i, i64 96
  %24 = load i32, ptr %23, align 8, !tbaa !87
  br label %rb_ec_vm_lock_rec.exit

rb_ec_vm_lock_rec.exit:                           ; preds = %rb_ec_ractor_ptr.exit.i, %22
  %.0.i = phi i32 [ %24, %22 ], [ 0, %rb_ec_ractor_ptr.exit.i ]
  %25 = getelementptr inbounds nuw i8, ptr %7, i64 68
  store i32 %.0.i, ptr %25, align 4, !tbaa !88
  %26 = getelementptr inbounds nuw i8, ptr %7, i64 16
  %27 = tail call ptr @llvm.frameaddress.p0(i32 0)
  store ptr %27, ptr %26, align 8
  %28 = tail call ptr @llvm.stacksave.p0()
  %29 = getelementptr inbounds nuw i8, ptr %7, i64 32
  store ptr %28, ptr %29, align 8
  %30 = call i32 @llvm.eh.sjlj.setjmp(ptr nonnull %26)
  %.not = icmp eq i32 %30, 0
  br i1 %.not, label %31, label %39, !prof !89

31:                                               ; preds = %rb_ec_vm_lock_rec.exit
  store ptr %7, ptr %11, align 8, !tbaa !82
  call void @llvm.lifetime.start.p0(i64 8, ptr nonnull %4)
  store i64 %0, ptr %4, align 8, !tbaa !42
  %32 = call i64 @rb_get_path(i64 noundef %0) #7
  call void @llvm.lifetime.start.p0(i64 8, ptr nonnull %5) #7
  store ptr %4, ptr %5, align 8, !tbaa !49
  call void asm sideeffect "", "*m,~{dirflag},~{fpsr},~{flags}"(ptr nonnull elementtype(ptr) %5) #7, !srcloc !54
  %33 = load ptr, ptr %5, align 8, !tbaa !49
  call void @llvm.lifetime.end.p0(i64 8, ptr nonnull %5) #7
  store volatile i64 %32, ptr %33, align 8, !tbaa !42
  %34 = call i64 @rb_find_file(i64 noundef %32) #7
  %.not.i10 = icmp eq i64 %34, 0
  br i1 %.not.i10, label %35, label %.thread11

35:                                               ; preds = %31
  %36 = load i64, ptr %4, align 8, !tbaa !42
  call fastcc void @load_failed(i64 noundef %36) #26
  unreachable

.thread11:                                        ; preds = %31
  %.not3.i = icmp eq i32 %1, 0
  %37 = select i1 %.not3.i, i64 0, i64 20
  call fastcc void @rb_load_internal(i64 noundef %34, i64 noundef %37)
  call void @llvm.lifetime.end.p0(i64 8, ptr nonnull %4)
  %38 = load ptr, ptr %13, align 8, !tbaa !83
  store ptr %38, ptr %11, align 8, !tbaa !82
  call void @llvm.lifetime.end.p0(i64 72, ptr nonnull %7) #7
  call void @llvm.lifetime.end.p0(i64 8, ptr nonnull %6)
  br label %43

39:                                               ; preds = %rb_ec_vm_lock_rec.exit
  %.0..0..0..0.2 = load volatile ptr, ptr %6, align 8, !tbaa !55
  %40 = call fastcc i32 @rb_ec_tag_state(ptr noundef %.0..0..0..0.2)
  %41 = load ptr, ptr %13, align 8, !tbaa !83
  %.0..0..0..0.4 = load ptr, ptr %6, align 8, !tbaa !55
  %42 = getelementptr inbounds nuw i8, ptr %.0..0..0..0.4, i64 24
  store ptr %41, ptr %42, align 8, !tbaa !82
  call void @llvm.lifetime.end.p0(i64 72, ptr nonnull %7) #7
  call void @llvm.lifetime.end.p0(i64 8, ptr nonnull %6)
  store i32 %40, ptr %2, align 4, !tbaa !38
  br label %43

43:                                               ; preds = %.thread11, %39
  ret void
}